target datalayout = "e-m:e-p270:32:32-p271:32:32-p272:64:64-i64:64-i128:128-f80:128-n8:16:32:64-S128"
target triple = "x86_64-pc-linux-gnu"

%struct.Expr = type { i32 }
%struct.CaseExpr = type { %struct.Expr, i32, i32, ptr, ptr, ptr, i32 }
%struct.Node = type { i32 }

; Function Attrs: inlinehint nounwind uwtable
define internal ptr @newNode(i64 noundef %0, i32 noundef %1) #7 {
  %3 = alloca i64, align 8
  %4 = alloca i32, align 4
  %5 = alloca ptr, align 8
  store i64 %0, ptr %3, align 8
  store i32 %1, ptr %4, align 4
  call void @llvm.lifetime.start.p0(i64 8, ptr %5) #9
  %6 = load i64, ptr %3, align 8
  %7 = call ptr @palloc0(i64 noundef %6)
  store ptr %7, ptr %5, align 8
  %8 = load i32, ptr %4, align 4
  %9 = load ptr, ptr %5, align 8
  %10 = getelementptr inbounds nuw %struct.Node, ptr %9, i32 0, i32 0
  store i32 %8, ptr %10, align 4
  %11 = load ptr, ptr %5, align 8
  call void @llvm.lifetime.end.p0(i64 8, ptr %5) #9
  ret ptr %11
}

; Function Attrs: nounwind uwtable
define internal ptr @_readCaseExpr() #0 {
  %1 = alloca ptr, align 8
  %2 = alloca ptr, align 8
  %3 = alloca i32, align 4
  call void @llvm.lifetime.start.p0(i64 8, ptr %1) #9
  %4 = call ptr @newNode(i64 noundef 48, i32 noundef 32)
  store ptr %4, ptr %1, align 8
  call void @llvm.lifetime.start.p0(i64 8, ptr %2) #9
  call void @llvm.lifetime.start.p0(i64 4, ptr %3) #9
  %5 = call ptr @pg_strtok(ptr noundef %3)
  store ptr %5, ptr %2, align 8
  %6 = call ptr @pg_strtok(ptr noundef %3)
  store ptr %6, ptr %2, align 8
  %7 = load ptr, ptr %2, align 8
  %8 = call i64 @strtoul(ptr noundef %7, ptr noundef null, i32 noundef 10) #9
  %9 = trunc i64 %8 to i32
  %10 = load ptr, ptr %1, align 8
  %11 = getelementptr inbounds nuw %struct.CaseExpr, ptr %10, i32 0, i32 1
  store i32 %9, ptr %11, align 4
  %12 = call ptr @pg_strtok(ptr noundef %3)
  store ptr %12, ptr %2, align 8
  %13 = call ptr @pg_strtok(ptr noundef %3)
  store ptr %13, ptr %2, align 8
  %14 = load ptr, ptr %2, align 8
  %15 = call i64 @strtoul(ptr noundef %14, ptr noundef null, i32 noundef 10) #9
  %16 = trunc i64 %15 to i32
  %17 = load ptr, ptr %1, align 8
  %18 = getelementptr inbounds nuw %struct.CaseExpr, ptr %17, i32 0, i32 2
  store i32 %16, ptr %18, align 8
  %19 = call ptr @pg_strtok(ptr noundef %3)
  store ptr %19, ptr %2, align 8
  %20 = call ptr @nodeRead(ptr noundef null, i32 noundef 0)
  %21 = load ptr, ptr %1, align 8
  %22 = getelementptr inbounds nuw %struct.CaseExpr, ptr %21, i32 0, i32 3
  store ptr %20, ptr %22, align 8
  %23 = call ptr @pg_strtok(ptr noundef %3)
  store ptr %23, ptr %2, align 8
  %24 = call ptr @nodeRead(ptr noundef null, i32 noundef 0)
  %25 = load ptr, ptr %1, align 8
  %26 = getelementptr inbounds nuw %struct.CaseExpr, ptr %25, i32 0, i32 4
  store ptr %24, ptr %26, align 8
  %27 = call ptr @pg_strtok(ptr noundef %3)
  store ptr %27, ptr %2, align 8
  %28 = call ptr @nodeRead(ptr noundef null, i32 noundef 0)
  %29 = load ptr, ptr %1, align 8
  %30 = getelementptr inbounds nuw %struct.CaseExpr, ptr %29, i32 0, i32 5
  store ptr %28, ptr %30, align 8
  %31 = call ptr @pg_strtok(ptr noundef %3)
  store ptr %31, ptr %2, align 8
  %32 = call ptr @pg_strtok(ptr noundef %3)
  store ptr %32, ptr %2, align 8
  %33 = load ptr, ptr %1, align 8
  %34 = getelementptr inbounds nuw %struct.CaseExpr, ptr %33, i32 0, i32 6
  store i32 -1, ptr %34, align 8
  %35 = load ptr, ptr %1, align 8
  call void @llvm.lifetime.end.p0(i64 4, ptr %3) #9
  call void @llvm.lifetime.end.p0(i64 8, ptr %2) #9
  call void @llvm.lifetime.end.p0(i64 8, ptr %1) #9
  ret ptr %35
}