; Function Attrs: nounwind uwtable
define internal fastcc noundef ptr @_readCaseExpr() unnamed_addr #0 {
  %1 = alloca i32, align 4
  %2 = tail call noundef ptr @palloc0(i64 noundef 48) #10
  store i32 32, ptr %2, align 4
  call void @llvm.lifetime.start.p0(i64 4, ptr nonnull %1) #10
  %3 = call ptr @pg_strtok(ptr noundef nonnull %1) #10
  %4 = call ptr @pg_strtok(ptr noundef nonnull %1) #10
  %5 = call i64 @strtoul(ptr noundef captures(none) %4, ptr noundef null, i32 noundef 10) #10
  %6 = trunc i64 %5 to i32
  %7 = getelementptr inbounds nuw i8, ptr %2, i64 4
  store i32 %6, ptr %7, align 4
  %8 = call ptr @pg_strtok(ptr noundef nonnull %1) #10
  %9 = call ptr @pg_strtok(ptr noundef nonnull %1) #10
  %10 = call i64 @strtoul(ptr noundef captures(none) %9, ptr noundef null, i32 noundef 10) #10
  %11 = trunc i64 %10 to i32
  %12 = getelementptr inbounds nuw i8, ptr %2, i64 8
  store i32 %11, ptr %12, align 8
  %13 = call ptr @pg_strtok(ptr noundef nonnull %1) #10
  %14 = call ptr @nodeRead(ptr noundef null, i32 noundef 0) #10
  %15 = getelementptr inbounds nuw i8, ptr %2, i64 16
  store ptr %14, ptr %15, align 8
  %16 = call ptr @pg_strtok(ptr noundef nonnull %1) #10
  %17 = call ptr @nodeRead(ptr noundef null, i32 noundef 0) #10
  %18 = getelementptr inbounds nuw i8, ptr %2, i64 24
  store ptr %17, ptr %18, align 8
  %19 = call ptr @pg_strtok(ptr noundef nonnull %1) #10
  %20 = call ptr @nodeRead(ptr noundef null, i32 noundef 0) #10
  %21 = getelementptr inbounds nuw i8, ptr %2, i64 32
  store ptr %20, ptr %21, align 8
  %22 = call ptr @pg_strtok(ptr noundef nonnull %1) #10
  %23 = call ptr @pg_strtok(ptr noundef nonnull %1) #10
  %24 = getelementptr inbounds nuw i8, ptr %2, i64 40
  store i32 -1, ptr %24, align 8
  call void @llvm.lifetime.end.p0(i64 4, ptr nonnull %1) #10
  ret ptr %2
}